target datalayout = "e-m:e-p270:32:32-p271:32:32-p272:64:64-i64:64-i128:128-f80:128-n8:16:32:64-S128"
target triple = "x86_64-pc-linux-gnu"

%"struct.gmx::SettleParameters" = type { float, float, float, float, float, float, float, float, float, float, float, float, float, [3 x [3 x float]] }

@debug = external global ptr, align 8
@.str = private unnamed_addr constant [26 x i8] c"wh =%g, rc = %g, ra = %g\0A\00", align 1
@.str.1 = private unnamed_addr constant [40 x i8] c"rb = %g, irc2 = %g, dHH = %g, dOH = %g\0A\00", align 1

; Function Attrs: inlinehint mustprogress nounwind uwtable
define internal void @_ZL5msmulPA3_KffPA3_f(ptr noundef %0, float noundef %1, ptr noundef %2) #6 {
  %4 = alloca ptr, align 8
  %5 = alloca float, align 4
  %6 = alloca ptr, align 8
  store ptr %0, ptr %4, align 8, !tbaa !29
  store float %1, ptr %5, align 4, !tbaa !4
  store ptr %2, ptr %6, align 8, !tbaa !29
  %7 = load float, ptr %5, align 4, !tbaa !4
  %8 = load ptr, ptr %4, align 8, !tbaa !29
  %9 = getelementptr inbounds [3 x float], ptr %8, i64 0
  %10 = getelementptr inbounds [3 x float], ptr %9, i64 0, i64 0
  %11 = load float, ptr %10, align 4, !tbaa !4
  %12 = fmul float %7, %11
  %13 = load ptr, ptr %6, align 8, !tbaa !29
  %14 = getelementptr inbounds [3 x float], ptr %13, i64 0
  %15 = getelementptr inbounds [3 x float], ptr %14, i64 0, i64 0
  store float %12, ptr %15, align 4, !tbaa !4
  %16 = load float, ptr %5, align 4, !tbaa !4
  %17 = load ptr, ptr %4, align 8, !tbaa !29
  %18 = getelementptr inbounds [3 x float], ptr %17, i64 0
  %19 = getelementptr inbounds [3 x float], ptr %18, i64 0, i64 1
  %20 = load float, ptr %19, align 4, !tbaa !4
  %21 = fmul float %16, %20
  %22 = load ptr, ptr %6, align 8, !tbaa !29
  %23 = getelementptr inbounds [3 x float], ptr %22, i64 0
  %24 = getelementptr inbounds [3 x float], ptr %23, i64 0, i64 1
  store float %21, ptr %24, align 4, !tbaa !4
  %25 = load float, ptr %5, align 4, !tbaa !4
  %26 = load ptr, ptr %4, align 8, !tbaa !29
  %27 = getelementptr inbounds [3 x float], ptr %26, i64 0
  %28 = getelementptr inbounds [3 x float], ptr %27, i64 0, i64 2
  %29 = load float, ptr %28, align 4, !tbaa !4
  %30 = fmul float %25, %29
  %31 = load ptr, ptr %6, align 8, !tbaa !29
  %32 = getelementptr inbounds [3 x float], ptr %31, i64 0
  %33 = getelementptr inbounds [3 x float], ptr %32, i64 0, i64 2
  store float %30, ptr %33, align 4, !tbaa !4
  %34 = load float, ptr %5, align 4, !tbaa !4
  %35 = load ptr, ptr %4, align 8, !tbaa !29
  %36 = getelementptr inbounds [3 x float], ptr %35, i64 1
  %37 = getelementptr inbounds [3 x float], ptr %36, i64 0, i64 0
  %38 = load float, ptr %37, align 4, !tbaa !4
  %39 = fmul float %34, %38
  %40 = load ptr, ptr %6, align 8, !tbaa !29
  %41 = getelementptr inbounds [3 x float], ptr %40, i64 1
  %42 = getelementptr inbounds [3 x float], ptr %41, i64 0, i64 0
  store float %39, ptr %42, align 4, !tbaa !4
  %43 = load float, ptr %5, align 4, !tbaa !4
  %44 = load ptr, ptr %4, align 8, !tbaa !29
  %45 = getelementptr inbounds [3 x float], ptr %44, i64 1
  %46 = getelementptr inbounds [3 x float], ptr %45, i64 0, i64 1
  %47 = load float, ptr %46, align 4, !tbaa !4
  %48 = fmul float %43, %47
  %49 = load ptr, ptr %6, align 8, !tbaa !29
  %50 = getelementptr inbounds [3 x float], ptr %49, i64 1
  %51 = getelementptr inbounds [3 x float], ptr %50, i64 0, i64 1
  store float %48, ptr %51, align 4, !tbaa !4
  %52 = load float, ptr %5, align 4, !tbaa !4
  %53 = load ptr, ptr %4, align 8, !tbaa !29
  %54 = getelementptr inbounds [3 x float], ptr %53, i64 1
  %55 = getelementptr inbounds [3 x float], ptr %54, i64 0, i64 2
  %56 = load float, ptr %55, align 4, !tbaa !4
  %57 = fmul float %52, %56
  %58 = load ptr, ptr %6, align 8, !tbaa !29
  %59 = getelementptr inbounds [3 x float], ptr %58, i64 1
  %60 = getelementptr inbounds [3 x float], ptr %59, i64 0, i64 2
  store float %57, ptr %60, align 4, !tbaa !4
  %61 = load float, ptr %5, align 4, !tbaa !4
  %62 = load ptr, ptr %4, align 8, !tbaa !29
  %63 = getelementptr inbounds [3 x float], ptr %62, i64 2
  %64 = getelementptr inbounds [3 x float], ptr %63, i64 0, i64 0
  %65 = load float, ptr %64, align 4, !tbaa !4
  %66 = fmul float %61, %65
  %67 = load ptr, ptr %6, align 8, !tbaa !29
  %68 = getelementptr inbounds [3 x float], ptr %67, i64 2
  %69 = getelementptr inbounds [3 x float], ptr %68, i64 0, i64 0
  store float %66, ptr %69, align 4, !tbaa !4
  %70 = load float, ptr %5, align 4, !tbaa !4
  %71 = load ptr, ptr %4, align 8, !tbaa !29
  %72 = getelementptr inbounds [3 x float], ptr %71, i64 2
  %73 = getelementptr inbounds [3 x float], ptr %72, i64 0, i64 1
  %74 = load float, ptr %73, align 4, !tbaa !4
  %75 = fmul float %70, %74
  %76 = load ptr, ptr %6, align 8, !tbaa !29
  %77 = getelementptr inbounds [3 x float], ptr %76, i64 2
  %78 = getelementptr inbounds [3 x float], ptr %77, i64 0, i64 1
  store float %75, ptr %78, align 4, !tbaa !4
  %79 = load float, ptr %5, align 4, !tbaa !4
  %80 = load ptr, ptr %4, align 8, !tbaa !29
  %81 = getelementptr inbounds [3 x float], ptr %80, i64 2
  %82 = getelementptr inbounds [3 x float], ptr %81, i64 0, i64 2
  %83 = load float, ptr %82, align 4, !tbaa !4
  %84 = fmul float %79, %83
  %85 = load ptr, ptr %6, align 8, !tbaa !29
  %86 = getelementptr inbounds [3 x float], ptr %85, i64 2
  %87 = getelementptr inbounds [3 x float], ptr %86, i64 0, i64 2
  store float %84, ptr %87, align 4, !tbaa !4
  ret void
}

; Function Attrs: mustprogress nounwind uwtable
define linkonce_odr noundef double @_ZN3gmx6squareIdEET_S1_(double noundef %0) #4 comdat {
  %2 = alloca double, align 8
  store double %0, ptr %2, align 8, !tbaa !11
  %3 = load double, ptr %2, align 8, !tbaa !11
  %4 = load double, ptr %2, align 8, !tbaa !11
  %5 = fmul double %3, %4
  ret double %5
}

; Function Attrs: mustprogress uwtable
define internal void @_ZN3gmxL26initializeProjectionMatrixEffffPA3_f(float noundef %0, float noundef %1, float noundef %2, float noundef %3, ptr noundef %4) #0 {
  %6 = alloca float, align 4
  %7 = alloca float, align 4
  %8 = alloca float, align 4
  %9 = alloca float, align 4
  %10 = alloca ptr, align 8
  %11 = alloca double, align 8
  %12 = alloca double, align 8
  %13 = alloca double, align 8
  %14 = alloca [3 x [3 x float]], align 16
  store float %0, ptr %6, align 4, !tbaa !4
  store float %1, ptr %7, align 4, !tbaa !4
  store float %2, ptr %8, align 4, !tbaa !4
  store float %3, ptr %9, align 4, !tbaa !4
  store ptr %4, ptr %10, align 8, !tbaa !29
  call void @llvm.lifetime.start.p0(i64 8, ptr %11) #22
  store double 1.000000e+00, ptr %11, align 8, !tbaa !11
  call void @llvm.lifetime.start.p0(i64 8, ptr %12) #22
  %15 = load float, ptr %7, align 4, !tbaa !4
  %16 = fpext float %15 to double
  %17 = load float, ptr %6, align 4, !tbaa !4
  %18 = fpext float %17 to double
  %19 = fdiv double %16, %18
  store double %19, ptr %12, align 8, !tbaa !11
  call void @llvm.lifetime.start.p0(i64 8, ptr %13) #22
  %20 = load float, ptr %9, align 4, !tbaa !4
  %21 = fpext float %20 to double
  %22 = load float, ptr %8, align 4, !tbaa !4
  %23 = fpext float %22 to double
  %24 = fdiv double %21, %23
  store double %24, ptr %13, align 8, !tbaa !11
  call void @llvm.lifetime.start.p0(i64 36, ptr %14) #22
  %25 = load double, ptr %11, align 8, !tbaa !11
  %26 = load double, ptr %12, align 8, !tbaa !11
  %27 = fadd double %25, %26
  %28 = fptrunc double %27 to float
  %29 = getelementptr inbounds [3 x [3 x float]], ptr %14, i64 0, i64 0
  %30 = getelementptr inbounds [3 x float], ptr %29, i64 0, i64 0
  store float %28, ptr %30, align 16, !tbaa !4
  %31 = load double, ptr %11, align 8, !tbaa !11
  %32 = load double, ptr %13, align 8, !tbaa !11
  %33 = call noundef double @_ZN3gmx6squareIdEET_S1_(double noundef %32)
  %34 = call double @llvm.fmuladd.f64(double -5.000000e-01, double %33, double 1.000000e+00)
  %35 = fmul double %31, %34
  %36 = fptrunc double %35 to float
  %37 = getelementptr inbounds [3 x [3 x float]], ptr %14, i64 0, i64 0
  %38 = getelementptr inbounds [3 x float], ptr %37, i64 0, i64 1
  store float %36, ptr %38, align 4, !tbaa !4
  %39 = load double, ptr %12, align 8, !tbaa !11
  %40 = fmul double %39, 5.000000e-01
  %41 = load double, ptr %13, align 8, !tbaa !11
  %42 = fmul double %40, %41
  %43 = fptrunc double %42 to float
  %44 = getelementptr inbounds [3 x [3 x float]], ptr %14, i64 0, i64 0
  %45 = getelementptr inbounds [3 x float], ptr %44, i64 0, i64 2
  store float %43, ptr %45, align 8, !tbaa !4
  %46 = getelementptr inbounds [3 x [3 x float]], ptr %14, i64 0, i64 0
  %47 = getelementptr inbounds [3 x float], ptr %46, i64 0, i64 0
  %48 = load float, ptr %47, align 16, !tbaa !4
  %49 = getelementptr inbounds [3 x [3 x float]], ptr %14, i64 0, i64 1
  %50 = getelementptr inbounds [3 x float], ptr %49, i64 0, i64 1
  store float %48, ptr %50, align 4, !tbaa !4
  %51 = getelementptr inbounds [3 x [3 x float]], ptr %14, i64 0, i64 0
  %52 = getelementptr inbounds [3 x float], ptr %51, i64 0, i64 2
  %53 = load float, ptr %52, align 8, !tbaa !4
  %54 = getelementptr inbounds [3 x [3 x float]], ptr %14, i64 0, i64 1
  %55 = getelementptr inbounds [3 x float], ptr %54, i64 0, i64 2
  store float %53, ptr %55, align 4, !tbaa !4
  %56 = load double, ptr %12, align 8, !tbaa !11
  %57 = load double, ptr %12, align 8, !tbaa !11
  %58 = fadd double %56, %57
  %59 = fptrunc double %58 to float
  %60 = getelementptr inbounds [3 x [3 x float]], ptr %14, i64 0, i64 2
  %61 = getelementptr inbounds [3 x float], ptr %60, i64 0, i64 2
  store float %59, ptr %61, align 8, !tbaa !4
  %62 = getelementptr inbounds [3 x [3 x float]], ptr %14, i64 0, i64 0
  %63 = getelementptr inbounds [3 x float], ptr %62, i64 0, i64 1
  %64 = load float, ptr %63, align 4, !tbaa !4
  %65 = getelementptr inbounds [3 x [3 x float]], ptr %14, i64 0, i64 1
  %66 = getelementptr inbounds [3 x float], ptr %65, i64 0, i64 0
  store float %64, ptr %66, align 4, !tbaa !4
  %67 = getelementptr inbounds [3 x [3 x float]], ptr %14, i64 0, i64 0
  %68 = getelementptr inbounds [3 x float], ptr %67, i64 0, i64 2
  %69 = load float, ptr %68, align 8, !tbaa !4
  %70 = getelementptr inbounds [3 x [3 x float]], ptr %14, i64 0, i64 2
  %71 = getelementptr inbounds [3 x float], ptr %70, i64 0, i64 0
  store float %69, ptr %71, align 8, !tbaa !4
  %72 = getelementptr inbounds [3 x [3 x float]], ptr %14, i64 0, i64 1
  %73 = getelementptr inbounds [3 x float], ptr %72, i64 0, i64 2
  %74 = load float, ptr %73, align 4, !tbaa !4
  %75 = getelementptr inbounds [3 x [3 x float]], ptr %14, i64 0, i64 2
  %76 = getelementptr inbounds [3 x float], ptr %75, i64 0, i64 1
  store float %74, ptr %76, align 4, !tbaa !4
  %77 = getelementptr inbounds [3 x [3 x float]], ptr %14, i64 0, i64 0
  %78 = load ptr, ptr %10, align 8, !tbaa !29
  call void @_ZN3gmx12invertMatrixEPA3_KfPA3_f(ptr noundef %77, ptr noundef %78)
  %79 = load ptr, ptr %10, align 8, !tbaa !29
  %80 = load float, ptr %6, align 4, !tbaa !4
  %81 = fdiv float 1.000000e+00, %80
  %82 = load ptr, ptr %10, align 8, !tbaa !29
  call void @_ZL5msmulPA3_KffPA3_f(ptr noundef %79, float noundef %81, ptr noundef %82)
  call void @llvm.lifetime.end.p0(i64 36, ptr %14) #22
  call void @llvm.lifetime.end.p0(i64 8, ptr %13) #22
  call void @llvm.lifetime.end.p0(i64 8, ptr %12) #22
  call void @llvm.lifetime.end.p0(i64 8, ptr %11) #22
  ret void
}

; Function Attrs: mustprogress uwtable
define void @_ZN3gmx16settleParametersEffffff(ptr dead_on_unwind noalias writable sret(%"struct.gmx::SettleParameters") align 4 %0, float noundef %1, float noundef %2, float noundef %3, float noundef %4, float noundef %5, float noundef %6) #0 {
  %8 = alloca float, align 4
  %9 = alloca float, align 4
  %10 = alloca float, align 4
  %11 = alloca float, align 4
  %12 = alloca float, align 4
  %13 = alloca float, align 4
  %14 = alloca double, align 8
  %15 = alloca double, align 8
  %16 = alloca double, align 8
  store float %1, ptr %8, align 4, !tbaa !4
  store float %2, ptr %9, align 4, !tbaa !4
  store float %3, ptr %10, align 4, !tbaa !4
  store float %4, ptr %11, align 4, !tbaa !4
  store float %5, ptr %12, align 4, !tbaa !4
  store float %6, ptr %13, align 4, !tbaa !4
  call void @llvm.lifetime.start.p0(i64 8, ptr %14) #22
  %17 = load float, ptr %8, align 4, !tbaa !4
  %18 = getelementptr inbounds nuw %"struct.gmx::SettleParameters", ptr %0, i32 0, i32 0
  store float %17, ptr %18, align 4, !tbaa !8
  %19 = load float, ptr %9, align 4, !tbaa !4
  %20 = getelementptr inbounds nuw %"struct.gmx::SettleParameters", ptr %0, i32 0, i32 1
  store float %19, ptr %20, align 4, !tbaa !10
  %21 = load float, ptr %8, align 4, !tbaa !4
  %22 = fpext float %21 to double
  %23 = load float, ptr %9, align 4, !tbaa !4
  %24 = fpext float %23 to double
  %25 = call double @llvm.fmuladd.f64(double 2.000000e+00, double %24, double %22)
  store double %25, ptr %14, align 8, !tbaa !11
  %26 = load float, ptr %9, align 4, !tbaa !4
  %27 = fpext float %26 to double
  %28 = load double, ptr %14, align 8, !tbaa !11
  %29 = fdiv double %27, %28
  %30 = fptrunc double %29 to float
  %31 = getelementptr inbounds nuw %"struct.gmx::SettleParameters", ptr %0, i32 0, i32 2
  store float %30, ptr %31, align 4, !tbaa !13
  %32 = load float, ptr %12, align 4, !tbaa !4
  %33 = getelementptr inbounds nuw %"struct.gmx::SettleParameters", ptr %0, i32 0, i32 3
  store float %32, ptr %33, align 4, !tbaa !14
  %34 = load float, ptr %13, align 4, !tbaa !4
  %35 = getelementptr inbounds nuw %"struct.gmx::SettleParameters", ptr %0, i32 0, i32 4
  store float %34, ptr %35, align 4, !tbaa !15
  call void @llvm.lifetime.start.p0(i64 8, ptr %15) #22
  %36 = load float, ptr %13, align 4, !tbaa !4
  %37 = fpext float %36 to double
  %38 = fdiv double %37, 2.000000e+00
  store double %38, ptr %15, align 8, !tbaa !11
  call void @llvm.lifetime.start.p0(i64 8, ptr %16) #22
  %39 = load float, ptr %9, align 4, !tbaa !4
  %40 = fpext float %39 to double
  %41 = fmul double 2.000000e+00, %40
  %42 = load float, ptr %12, align 4, !tbaa !4
  %43 = load float, ptr %12, align 4, !tbaa !4
  %44 = fmul float %42, %43
  %45 = fpext float %44 to double
  %46 = load double, ptr %15, align 8, !tbaa !11
  %47 = load double, ptr %15, align 8, !tbaa !11
  %48 = fneg double %46
  %49 = call double @llvm.fmuladd.f64(double %48, double %47, double %45)
  %50 = call double @sqrt(double noundef %49) #22, !tbaa !16
  %51 = fmul double %41, %50
  %52 = load double, ptr %14, align 8, !tbaa !11
  %53 = fdiv double %51, %52
  store double %53, ptr %16, align 8, !tbaa !11
  %54 = load float, ptr %12, align 4, !tbaa !4
  %55 = load float, ptr %12, align 4, !tbaa !4
  %56 = fmul float %54, %55
  %57 = fpext float %56 to double
  %58 = load double, ptr %15, align 8, !tbaa !11
  %59 = load double, ptr %15, align 8, !tbaa !11
  %60 = fneg double %58
  %61 = call double @llvm.fmuladd.f64(double %60, double %59, double %57)
  %62 = call double @sqrt(double noundef %61) #22, !tbaa !16
  %63 = load double, ptr %16, align 8, !tbaa !11
  %64 = fsub double %62, %63
  %65 = fptrunc double %64 to float
  %66 = getelementptr inbounds nuw %"struct.gmx::SettleParameters", ptr %0, i32 0, i32 6
  store float %65, ptr %66, align 4, !tbaa !18
  %67 = load double, ptr %15, align 8, !tbaa !11
  %68 = fptrunc double %67 to float
  %69 = getelementptr inbounds nuw %"struct.gmx::SettleParameters", ptr %0, i32 0, i32 7
  store float %68, ptr %69, align 4, !tbaa !19
  %70 = load double, ptr %16, align 8, !tbaa !11
  %71 = fptrunc double %70 to float
  %72 = getelementptr inbounds nuw %"struct.gmx::SettleParameters", ptr %0, i32 0, i32 5
  store float %71, ptr %72, align 4, !tbaa !20
  %73 = load float, ptr %13, align 4, !tbaa !4
  %74 = fpext float %73 to double
  %75 = fdiv double 1.000000e+00, %74
  %76 = fptrunc double %75 to float
  %77 = getelementptr inbounds nuw %"struct.gmx::SettleParameters", ptr %0, i32 0, i32 8
  store float %76, ptr %77, align 4, !tbaa !21
  %78 = load float, ptr %10, align 4, !tbaa !4
  %79 = getelementptr inbounds nuw %"struct.gmx::SettleParameters", ptr %0, i32 0, i32 9
  store float %78, ptr %79, align 4, !tbaa !22
  %80 = load float, ptr %11, align 4, !tbaa !4
  %81 = getelementptr inbounds nuw %"struct.gmx::SettleParameters", ptr %0, i32 0, i32 10
  store float %80, ptr %81, align 4, !tbaa !23
  %82 = load float, ptr %12, align 4, !tbaa !4
  %83 = fpext float %82 to double
  %84 = fdiv double 1.000000e+00, %83
  %85 = fptrunc double %84 to float
  %86 = getelementptr inbounds nuw %"struct.gmx::SettleParameters", ptr %0, i32 0, i32 11
  store float %85, ptr %86, align 4, !tbaa !24
  %87 = load float, ptr %13, align 4, !tbaa !4
  %88 = fpext float %87 to double
  %89 = fdiv double 1.000000e+00, %88
  %90 = fptrunc double %89 to float
  %91 = getelementptr inbounds nuw %"struct.gmx::SettleParameters", ptr %0, i32 0, i32 12
  store float %90, ptr %91, align 4, !tbaa !25
  %92 = load float, ptr %10, align 4, !tbaa !4
  %93 = load float, ptr %11, align 4, !tbaa !4
  %94 = load float, ptr %12, align 4, !tbaa !4
  %95 = load float, ptr %13, align 4, !tbaa !4
  %96 = getelementptr inbounds nuw %"struct.gmx::SettleParameters", ptr %0, i32 0, i32 13
  %97 = getelementptr inbounds [3 x [3 x float]], ptr %96, i64 0, i64 0
  call void @_ZN3gmxL26initializeProjectionMatrixEffffPA3_f(float noundef %92, float noundef %93, float noundef %94, float noundef %95, ptr noundef %97)
  %98 = load ptr, ptr @debug, align 8, !tbaa !26
  %99 = icmp ne ptr %98, null
  br i1 %99, label %100, label %126

100:                                              ; preds = %7
  %101 = load ptr, ptr @debug, align 8, !tbaa !26
  %102 = getelementptr inbounds nuw %"struct.gmx::SettleParameters", ptr %0, i32 0, i32 2
  %103 = load float, ptr %102, align 4, !tbaa !13
  %104 = fpext float %103 to double
  %105 = getelementptr inbounds nuw %"struct.gmx::SettleParameters", ptr %0, i32 0, i32 7
  %106 = load float, ptr %105, align 4, !tbaa !19
  %107 = fpext float %106 to double
  %108 = getelementptr inbounds nuw %"struct.gmx::SettleParameters", ptr %0, i32 0, i32 5
  %109 = load float, ptr %108, align 4, !tbaa !20
  %110 = fpext float %109 to double
  %111 = call i32 (ptr, ptr, ...) @fprintf(ptr noundef %101, ptr noundef @.str, double noundef %104, double noundef %107, double noundef %110) #22
  %112 = load ptr, ptr @debug, align 8, !tbaa !26
  %113 = getelementptr inbounds nuw %"struct.gmx::SettleParameters", ptr %0, i32 0, i32 6
  %114 = load float, ptr %113, align 4, !tbaa !18
  %115 = fpext float %114 to double
  %116 = getelementptr inbounds nuw %"struct.gmx::SettleParameters", ptr %0, i32 0, i32 8
  %117 = load float, ptr %116, align 4, !tbaa !21
  %118 = fpext float %117 to double
  %119 = getelementptr inbounds nuw %"struct.gmx::SettleParameters", ptr %0, i32 0, i32 4
  %120 = load float, ptr %119, align 4, !tbaa !15
  %121 = fpext float %120 to double
  %122 = getelementptr inbounds nuw %"struct.gmx::SettleParameters", ptr %0, i32 0, i32 3
  %123 = load float, ptr %122, align 4, !tbaa !14
  %124 = fpext float %123 to double
  %125 = call i32 (ptr, ptr, ...) @fprintf(ptr noundef %112, ptr noundef @.str.1, double noundef %115, double noundef %118, double noundef %121, double noundef %124) #22
  br label %126

126:                                              ; preds = %100, %7
  call void @llvm.lifetime.end.p0(i64 8, ptr %16) #22
  call void @llvm.lifetime.end.p0(i64 8, ptr %15) #22
  call void @llvm.lifetime.end.p0(i64 8, ptr %14) #22
  ret void
}