; Function Attrs: mustprogress uwtable
define void @_ZN3gmx16settleParametersEffffff(ptr dead_on_unwind noalias writable sret(%"struct.gmx::SettleParameters") align 4 initializes((0, 52)) %0, float noundef %1, float noundef %2, float noundef %3, float noundef %4, float noundef %5, float noundef %6) local_unnamed_addr #0 {
  %8 = alloca [3 x [3 x float]], align 16
  store float %1, ptr %0, align 4, !tbaa !4
  %9 = getelementptr inbounds nuw i8, ptr %0, i64 4
  store float %2, ptr %9, align 4, !tbaa !9
  %10 = fpext float %1 to double
  %11 = fpext float %2 to double
  %12 = tail call double @llvm.fmuladd.f64(double %11, double 2.000000e+00, double %10)
  %13 = fdiv double %11, %12
  %14 = fptrunc double %13 to float
  %15 = getelementptr inbounds nuw i8, ptr %0, i64 8
  store float %14, ptr %15, align 4, !tbaa !10
  %16 = getelementptr inbounds nuw i8, ptr %0, i64 12
  store float %5, ptr %16, align 4, !tbaa !11
  %17 = getelementptr inbounds nuw i8, ptr %0, i64 16
  store float %6, ptr %17, align 4, !tbaa !12
  %18 = fpext float %6 to double
  %19 = fmul double %18, 5.000000e-01
  %20 = fmul double %11, 2.000000e+00
  %21 = fmul float %5, %5
  %22 = fpext float %21 to double
  %23 = fneg double %19
  %24 = tail call double @llvm.fmuladd.f64(double %23, double %19, double %22)
  %25 = tail call double @sqrt(double noundef %24) #23, !tbaa !13
  %26 = fmul double %20, %25
  %27 = fdiv double %26, %12
  %28 = tail call double @sqrt(double noundef %24) #23, !tbaa !13
  %29 = fsub double %28, %27
  %30 = fptrunc double %29 to float
  %31 = getelementptr inbounds nuw i8, ptr %0, i64 24
  store float %30, ptr %31, align 4, !tbaa !15
  %32 = fptrunc double %19 to float
  %33 = getelementptr inbounds nuw i8, ptr %0, i64 28
  store float %32, ptr %33, align 4, !tbaa !16
  %34 = fptrunc double %27 to float
  %35 = getelementptr inbounds nuw i8, ptr %0, i64 20
  store float %34, ptr %35, align 4, !tbaa !17
  %36 = fdiv float 1.000000e+00, %6
  %37 = getelementptr inbounds nuw i8, ptr %0, i64 32
  store float %36, ptr %37, align 4, !tbaa !18
  %38 = getelementptr inbounds nuw i8, ptr %0, i64 36
  store float %3, ptr %38, align 4, !tbaa !19
  %39 = getelementptr inbounds nuw i8, ptr %0, i64 40
  store float %4, ptr %39, align 4, !tbaa !20
  %40 = fdiv float 1.000000e+00, %5
  %41 = getelementptr inbounds nuw i8, ptr %0, i64 44
  store float %40, ptr %41, align 4, !tbaa !21
  %42 = getelementptr inbounds nuw i8, ptr %0, i64 48
  store float %36, ptr %42, align 4, !tbaa !22
  %43 = getelementptr inbounds nuw i8, ptr %0, i64 52
  %44 = fpext float %4 to double
  %45 = fpext float %3 to double
  %46 = fdiv double %44, %45
  %47 = fpext float %5 to double
  %48 = fdiv double %18, %47
  call void @llvm.lifetime.start.p0(i64 36, ptr nonnull %8) #23
  %49 = fadd double %46, 1.000000e+00
  %50 = fptrunc double %49 to float
  store float %50, ptr %8, align 16, !tbaa !23
  %51 = fmul double %48, %48
  %52 = tail call double @llvm.fmuladd.f64(double %51, double -5.000000e-01, double 1.000000e+00)
  %53 = fptrunc double %52 to float
  %54 = getelementptr inbounds nuw i8, ptr %8, i64 4
  store float %53, ptr %54, align 4, !tbaa !23
  %55 = fmul double %46, 5.000000e-01
  %56 = fmul double %55, %48
  %57 = fptrunc double %56 to float
  %58 = getelementptr inbounds nuw i8, ptr %8, i64 8
  store float %57, ptr %58, align 8, !tbaa !23
  %59 = getelementptr inbounds nuw i8, ptr %8, i64 12
  %60 = getelementptr inbounds nuw i8, ptr %8, i64 16
  store float %50, ptr %60, align 16, !tbaa !23
  %61 = getelementptr inbounds nuw i8, ptr %8, i64 20
  store float %57, ptr %61, align 4, !tbaa !23
  %62 = fadd double %46, %46
  %63 = fptrunc double %62 to float
  %64 = getelementptr inbounds nuw i8, ptr %8, i64 24
  %65 = getelementptr inbounds nuw i8, ptr %8, i64 32
  store float %63, ptr %65, align 16, !tbaa !23
  store float %53, ptr %59, align 4, !tbaa !23
  store float %57, ptr %64, align 8, !tbaa !23
  %66 = getelementptr inbounds nuw i8, ptr %8, i64 28
  store float %57, ptr %66, align 4, !tbaa !23
  call void @_ZN3gmx12invertMatrixEPA3_KfPA3_f(ptr noundef nonnull %8, ptr noundef nonnull %43)
  %67 = fdiv float 1.000000e+00, %3
  %68 = load float, ptr %43, align 4, !tbaa !23
  %69 = fmul float %67, %68
  store float %69, ptr %43, align 4, !tbaa !23
  %70 = getelementptr inbounds nuw i8, ptr %0, i64 56
  %71 = load float, ptr %70, align 4, !tbaa !23
  %72 = fmul float %67, %71
  store float %72, ptr %70, align 4, !tbaa !23
  %73 = getelementptr inbounds nuw i8, ptr %0, i64 60
  %74 = load float, ptr %73, align 4, !tbaa !23
  %75 = fmul float %67, %74
  store float %75, ptr %73, align 4, !tbaa !23
  %76 = getelementptr inbounds nuw i8, ptr %0, i64 64
  %77 = load float, ptr %76, align 4, !tbaa !23
  %78 = fmul float %67, %77
  store float %78, ptr %76, align 4, !tbaa !23
  %79 = getelementptr inbounds nuw i8, ptr %0, i64 68
  %80 = load float, ptr %79, align 4, !tbaa !23
  %81 = fmul float %67, %80
  store float %81, ptr %79, align 4, !tbaa !23
  %82 = getelementptr inbounds nuw i8, ptr %0, i64 72
  %83 = load float, ptr %82, align 4, !tbaa !23
  %84 = fmul float %67, %83
  store float %84, ptr %82, align 4, !tbaa !23
  %85 = getelementptr inbounds nuw i8, ptr %0, i64 76
  %86 = load float, ptr %85, align 4, !tbaa !23
  %87 = fmul float %67, %86
  store float %87, ptr %85, align 4, !tbaa !23
  %88 = getelementptr inbounds nuw i8, ptr %0, i64 80
  %89 = load float, ptr %88, align 4, !tbaa !23
  %90 = fmul float %67, %89
  store float %90, ptr %88, align 4, !tbaa !23
  %91 = getelementptr inbounds nuw i8, ptr %0, i64 84
  %92 = load float, ptr %91, align 4, !tbaa !23
  %93 = fmul float %67, %92
  store float %93, ptr %91, align 4, !tbaa !23
  call void @llvm.lifetime.end.p0(i64 36, ptr nonnull %8) #23
  %94 = load ptr, ptr @debug, align 8, !tbaa !24
  %.not = icmp eq ptr %94, null
  br i1 %.not, label %113, label %95

95:                                               ; preds = %7
  %96 = load float, ptr %15, align 4, !tbaa !10
  %97 = fpext float %96 to double
  %98 = load float, ptr %33, align 4, !tbaa !16
  %99 = fpext float %98 to double
  %100 = load float, ptr %35, align 4, !tbaa !17
  %101 = fpext float %100 to double
  %102 = call i32 (ptr, ptr, ...) @fprintf(ptr noundef nonnull %94, ptr noundef nonnull @.str, double noundef %97, double noundef %99, double noundef %101) #23
  %103 = load ptr, ptr @debug, align 8, !tbaa !24
  %104 = load float, ptr %31, align 4, !tbaa !15
  %105 = fpext float %104 to double
  %106 = load float, ptr %37, align 4, !tbaa !18
  %107 = fpext float %106 to double
  %108 = load float, ptr %17, align 4, !tbaa !12
  %109 = fpext float %108 to double
  %110 = load float, ptr %16, align 4, !tbaa !11
  %111 = fpext float %110 to double
  %112 = call i32 (ptr, ptr, ...) @fprintf(ptr noundef %103, ptr noundef nonnull @.str.1, double noundef %105, double noundef %107, double noundef %109, double noundef %111) #23
  br label %113

113:                                              ; preds = %95, %7
  ret void
}